; Function Attrs: mustprogress nofree norecurse nosync nounwind memory(argmem: readwrite) uwtable
define internal noundef range(i32 0, -2147483648) i32 @_ZL16uprv_swapArray16PK12UDataSwapperPKviPvP10UErrorCode(ptr noundef readnone %0, ptr noundef readonly %1, i32 noundef %2, ptr noundef writeonly %3, ptr noundef %4) #10 {
  %6 = icmp eq ptr %4, null
  br i1 %6, label %.loopexit, label %7

7:                                                ; preds = %5
  %8 = load i32, ptr %4, align 4, !tbaa !9
  %9 = icmp slt i32 %8, 1
  br i1 %9, label %10, label %.loopexit

10:                                               ; preds = %7
  %11 = icmp eq ptr %0, null
  %12 = icmp eq ptr %1, null
  %or.cond = or i1 %11, %12
  %13 = icmp slt i32 %2, 0
  %or.cond3 = or i1 %or.cond, %13
  br i1 %or.cond3, label %18, label %14

14:                                               ; preds = %10
  %15 = and i32 %2, 1
  %16 = icmp ne i32 %15, 0
  %17 = icmp eq ptr %3, null
  %or.cond5 = or i1 %16, %17
  br i1 %or.cond5, label %18, label %19

18:                                               ; preds = %14, %10
  store i32 1, ptr %4, align 4, !tbaa !9
  br label %.loopexit

19:                                               ; preds = %14
  %.not = icmp eq i32 %2, 0
  br i1 %.not, label %.loopexit, label %.lr.ph.preheader

.lr.ph.preheader:                                 ; preds = %19
  %20 = lshr exact i32 %2, 1
  br label %.lr.ph

.lr.ph:                                           ; preds = %.lr.ph.preheader, %.lr.ph
  %.02332 = phi i32 [ %25, %.lr.ph ], [ %20, %.lr.ph.preheader ]
  %.02431 = phi ptr [ %24, %.lr.ph ], [ %3, %.lr.ph.preheader ]
  %.02530 = phi ptr [ %21, %.lr.ph ], [ %1, %.lr.ph.preheader ]
  %21 = getelementptr inbounds nuw i8, ptr %.02530, i64 2
  %22 = load i16, ptr %.02530, align 2, !tbaa !39
  %23 = tail call i16 @llvm.bswap.i16(i16 %22)
  %24 = getelementptr inbounds nuw i8, ptr %.02431, i64 2
  store i16 %23, ptr %.02431, align 2, !tbaa !39
  %25 = add nsw i32 %.02332, -1
  %26 = icmp samesign ugt i32 %.02332, 1
  br i1 %26, label %.lr.ph, label %.loopexit, !llvm.loop !42

.loopexit:                                        ; preds = %.lr.ph, %19, %5, %7, %18
  %.0 = phi i32 [ 0, %18 ], [ 0, %7 ], [ 0, %5 ], [ 0, %19 ], [ %2, %.lr.ph ]
  ret i32 %.0
}